; ModuleID = '17/66.c'
source_filename = "17/66.c"
target datalayout = "e-m:e-p270:32:32-p271:32:32-p272:64:64-i64:64-f80:128-n8:16:32:64-S128"
target triple = "x86_64-pc-linux-gnu"

@.str = private unnamed_addr constant [3 x i8] c"%c\00", align 1
@.str.1 = private unnamed_addr constant [2 x i8] c"\0A\00", align 1

; Function Attrs: noinline nounwind uwtable
define dso_local i32 @main() #0 {
  %1 = alloca i32, align 4
  %2 = alloca i32, align 4
  %3 = alloca i32, align 4
  %4 = alloca i32, align 4
  %5 = alloca i32, align 4
  %6 = alloca i32, align 4
  %7 = alloca [101 x i8], align 16
  %8 = alloca [101 x i8], align 16
  store i32 0, i32* %1, align 4
  br label %9

9:                                                ; preds = %163, %0
  %10 = getelementptr inbounds [101 x i8], [101 x i8]* %7, i64 0, i64 0
  %11 = call i32 (i8*, ...) bitcast (i32 (...)* @gets to i32 (i8*, ...)*)(i8* %10)
  %12 = icmp ne i32 %11, 0
  br i1 %12, label %13, label %165

13:                                               ; preds = %9
  %14 = getelementptr inbounds [101 x i8], [101 x i8]* %7, i64 0, i64 0
  %15 = call i32 @puts(i8* %14)
  store i32 0, i32* %2, align 4
  br label %16

16:                                               ; preds = %51, %13
  %17 = load i32, i32* %2, align 4
  %18 = sext i32 %17 to i64
  %19 = getelementptr inbounds [101 x i8], [101 x i8]* %7, i64 0, i64 %18
  %20 = load i8, i8* %19, align 1
  %21 = sext i8 %20 to i32
  %22 = icmp ne i32 %21, 0
  br i1 %22, label %23, label %54

23:                                               ; preds = %16
  %24 = load i32, i32* %2, align 4
  %25 = sext i32 %24 to i64
  %26 = getelementptr inbounds [101 x i8], [101 x i8]* %7, i64 0, i64 %25
  %27 = load i8, i8* %26, align 1
  %28 = sext i8 %27 to i32
  %29 = icmp eq i32 %28, 40
  br i1 %29, label %30, label %34

30:                                               ; preds = %23
  %31 = load i32, i32* %2, align 4
  %32 = sext i32 %31 to i64
  %33 = getelementptr inbounds [101 x i8], [101 x i8]* %8, i64 0, i64 %32
  store i8 36, i8* %33, align 1
  br label %50

34:                                               ; preds = %23
  %35 = load i32, i32* %2, align 4
  %36 = sext i32 %35 to i64
  %37 = getelementptr inbounds [101 x i8], [101 x i8]* %7, i64 0, i64 %36
  %38 = load i8, i8* %37, align 1
  %39 = sext i8 %38 to i32
  %40 = icmp eq i32 %39, 41
  br i1 %40, label %41, label %45

41:                                               ; preds = %34
  %42 = load i32, i32* %2, align 4
  %43 = sext i32 %42 to i64
  %44 = getelementptr inbounds [101 x i8], [101 x i8]* %8, i64 0, i64 %43
  store i8 63, i8* %44, align 1
  br label %49

45:                                               ; preds = %34
  %46 = load i32, i32* %2, align 4
  %47 = sext i32 %46 to i64
  %48 = getelementptr inbounds [101 x i8], [101 x i8]* %8, i64 0, i64 %47
  store i8 32, i8* %48, align 1
  br label %49

49:                                               ; preds = %45, %41
  br label %50

50:                                               ; preds = %49, %30
  br label %51

51:                                               ; preds = %50
  %52 = load i32, i32* %2, align 4
  %53 = add nsw i32 %52, 1
  store i32 %53, i32* %2, align 4
  br label %16

54:                                               ; preds = %16
  %55 = load i32, i32* %2, align 4
  %56 = sext i32 %55 to i64
  %57 = getelementptr inbounds [101 x i8], [101 x i8]* %8, i64 0, i64 %56
  store i8 0, i8* %57, align 1
  store i32 0, i32* %3, align 4
  br label %58

58:                                               ; preds = %103, %54
  %59 = load i32, i32* %3, align 4
  %60 = sext i32 %59 to i64
  %61 = getelementptr inbounds [101 x i8], [101 x i8]* %7, i64 0, i64 %60
  %62 = load i8, i8* %61, align 1
  %63 = sext i8 %62 to i32
  %64 = icmp ne i32 %63, 0
  br i1 %64, label %65, label %106

65:                                               ; preds = %58
  %66 = load i32, i32* %3, align 4
  %67 = sext i32 %66 to i64
  %68 = getelementptr inbounds [101 x i8], [101 x i8]* %8, i64 0, i64 %67
  %69 = load i8, i8* %68, align 1
  %70 = sext i8 %69 to i32
  %71 = icmp eq i32 %70, 63
  br i1 %71, label %72, label %102

72:                                               ; preds = %65
  store i32 0, i32* %5, align 4
  %73 = load i32, i32* %3, align 4
  %74 = sub nsw i32 %73, 1
  store i32 %74, i32* %4, align 4
  br label %75

75:                                               ; preds = %88, %72
  %76 = load i32, i32* %4, align 4
  %77 = icmp sge i32 %76, 0
  br i1 %77, label %78, label %91

78:                                               ; preds = %75
  %79 = load i32, i32* %4, align 4
  %80 = sext i32 %79 to i64
  %81 = getelementptr inbounds [101 x i8], [101 x i8]* %8, i64 0, i64 %80
  %82 = load i8, i8* %81, align 1
  %83 = sext i8 %82 to i32
  %84 = icmp eq i32 %83, 36
  br i1 %84, label %85, label %87

85:                                               ; preds = %78
  %86 = load i32, i32* %4, align 4
  store i32 %86, i32* %6, align 4
  store i32 1, i32* %5, align 4
  br label %91

87:                                               ; preds = %78
  br label %88

88:                                               ; preds = %87
  %89 = load i32, i32* %4, align 4
  %90 = add nsw i32 %89, -1
  store i32 %90, i32* %4, align 4
  br label %75

91:                                               ; preds = %85, %75
  %92 = load i32, i32* %5, align 4
  %93 = icmp eq i32 %92, 1
  br i1 %93, label %94, label %101

94:                                               ; preds = %91
  %95 = load i32, i32* %3, align 4
  %96 = sext i32 %95 to i64
  %97 = getelementptr inbounds [101 x i8], [101 x i8]* %8, i64 0, i64 %96
  store i8 32, i8* %97, align 1
  %98 = load i32, i32* %6, align 4
  %99 = sext i32 %98 to i64
  %100 = getelementptr inbounds [101 x i8], [101 x i8]* %8, i64 0, i64 %99
  store i8 32, i8* %100, align 1
  br label %101

101:                                              ; preds = %94, %91
  br label %102

102:                                              ; preds = %101, %65
  br label %103

103:                                              ; preds = %102
  %104 = load i32, i32* %3, align 4
  %105 = add nsw i32 %104, 1
  store i32 %105, i32* %3, align 4
  br label %58

106:                                              ; preds = %58
  %107 = load i32, i32* %2, align 4
  store i32 %107, i32* %3, align 4
  br label %108

108:                                              ; preds = %127, %106
  %109 = load i32, i32* %3, align 4
  %110 = icmp sge i32 %109, 0
  br i1 %110, label %111, label %130

111:                                              ; preds = %108
  %112 = load i32, i32* %3, align 4
  %113 = sext i32 %112 to i64
  %114 = getelementptr inbounds [101 x i8], [101 x i8]* %8, i64 0, i64 %113
  %115 = load i8, i8* %114, align 1
  %116 = sext i8 %115 to i32
  %117 = icmp ne i32 %116, 32
  br i1 %117, label %118, label %126

118:                                              ; preds = %111
  %119 = load i32, i32* %3, align 4
  %120 = sext i32 %119 to i64
  %121 = getelementptr inbounds [101 x i8], [101 x i8]* %8, i64 0, i64 %120
  %122 = load i8, i8* %121, align 1
  %123 = sext i8 %122 to i32
  %124 = icmp ne i32 %123, 0
  br i1 %124, label %125, label %126

125:                                              ; preds = %118
  br label %130

126:                                              ; preds = %118, %111
  br label %127

127:                                              ; preds = %126
  %128 = load i32, i32* %3, align 4
  %129 = add nsw i32 %128, -1
  store i32 %129, i32* %3, align 4
  br label %108

130:                                              ; preds = %125, %108
  store i32 0, i32* %4, align 4
  br label %131

131:                                              ; preds = %144, %130
  %132 = load i32, i32* %4, align 4
  %133 = load i32, i32* %2, align 4
  %134 = icmp slt i32 %132, %133
  br i1 %134, label %135, label %147

135:                                              ; preds = %131
  %136 = load i32, i32* %4, align 4
  %137 = sext i32 %136 to i64
  %138 = getelementptr inbounds [101 x i8], [101 x i8]* %8, i64 0, i64 %137
  %139 = load i8, i8* %138, align 1
  %140 = sext i8 %139 to i32
  %141 = icmp ne i32 %140, 32
  br i1 %141, label %142, label %143

142:                                              ; preds = %135
  br label %147

143:                                              ; preds = %135
  br label %144

144:                                              ; preds = %143
  %145 = load i32, i32* %4, align 4
  %146 = add nsw i32 %145, 1
  store i32 %146, i32* %4, align 4
  br label %131

147:                                              ; preds = %142, %131
  %148 = load i32, i32* %4, align 4
  store i32 %148, i32* %6, align 4
  br label %149

149:                                              ; preds = %160, %147
  %150 = load i32, i32* %6, align 4
  %151 = load i32, i32* %3, align 4
  %152 = icmp sle i32 %150, %151
  br i1 %152, label %153, label %163

153:                                              ; preds = %149
  %154 = load i32, i32* %6, align 4
  %155 = sext i32 %154 to i64
  %156 = getelementptr inbounds [101 x i8], [101 x i8]* %8, i64 0, i64 %155
  %157 = load i8, i8* %156, align 1
  %158 = sext i8 %157 to i32
  %159 = call i32 (i8*, ...) @printf(i8* getelementptr inbounds ([3 x i8], [3 x i8]* @.str, i64 0, i64 0), i32 %158)
  br label %160

160:                                              ; preds = %153
  %161 = load i32, i32* %6, align 4
  %162 = add nsw i32 %161, 1
  store i32 %162, i32* %6, align 4
  br label %149

163:                                              ; preds = %149
  %164 = call i32 (i8*, ...) @printf(i8* getelementptr inbounds ([2 x i8], [2 x i8]* @.str.1, i64 0, i64 0))
  br label %9

165:                                              ; preds = %9
  ret i32 0
}

declare dso_local i32 @gets(...) #1

declare dso_local i32 @puts(i8*) #1

declare dso_local i32 @printf(i8*, ...) #1


!llvm.module.flags = !{!0}
!llvm.ident = !{!1}

!0 = !{i32 1, !"wchar_size", i32 4}
!1 = !{!"clang version 10.0.0-4ubuntu1 "}
